target datalayout = "e-m:e-p270:32:32-p271:32:32-p272:64:64-i64:64-i128:128-f80:128-n8:16:32:64-S128"
target triple = "x86_64-pc-linux-gnu"

%struct.prov_param_st = type { ptr, ptr, ptr, i32 }

; Function Attrs: nounwind uwtable
define internal i32 @set_prov_param(ptr noundef %0, ptr noundef %1) #0 {
  %3 = alloca i32, align 4
  %4 = alloca ptr, align 8
  %5 = alloca ptr, align 8
  %6 = alloca ptr, align 8
  %7 = alloca i32, align 4
  store ptr %0, ptr %4, align 8, !tbaa !11
  store ptr %1, ptr %5, align 8, !tbaa !17
  call void @llvm.lifetime.start.p0(i64 8, ptr %6) #6
  %8 = load ptr, ptr %5, align 8, !tbaa !17
  store ptr %8, ptr %6, align 8, !tbaa !33
  %9 = load ptr, ptr %6, align 8, !tbaa !33
  %10 = getelementptr inbounds nuw %struct.prov_param_st, ptr %9, i32 0, i32 0
  %11 = load ptr, ptr %10, align 8, !tbaa !31
  %12 = icmp ne ptr %11, null
  br i1 %12, label %13, label %22

13:                                               ; preds = %2
  %14 = load ptr, ptr %4, align 8, !tbaa !11
  %15 = call ptr @OSSL_PROVIDER_get0_name(ptr noundef %14)
  %16 = load ptr, ptr %6, align 8, !tbaa !33
  %17 = getelementptr inbounds nuw %struct.prov_param_st, ptr %16, i32 0, i32 0
  %18 = load ptr, ptr %17, align 8, !tbaa !31
  %19 = call i32 @strcmp(ptr noundef %15, ptr noundef %18) #7
  %20 = icmp ne i32 %19, 0
  br i1 %20, label %21, label %22

21:                                               ; preds = %13
  store i32 1, ptr %3, align 4
  store i32 1, ptr %7, align 4
  br label %33

22:                                               ; preds = %13, %2
  %23 = load ptr, ptr %6, align 8, !tbaa !33
  %24 = getelementptr inbounds nuw %struct.prov_param_st, ptr %23, i32 0, i32 3
  store i32 1, ptr %24, align 8, !tbaa !32
  %25 = load ptr, ptr %4, align 8, !tbaa !11
  %26 = load ptr, ptr %6, align 8, !tbaa !33
  %27 = getelementptr inbounds nuw %struct.prov_param_st, ptr %26, i32 0, i32 1
  %28 = load ptr, ptr %27, align 8, !tbaa !30
  %29 = load ptr, ptr %6, align 8, !tbaa !33
  %30 = getelementptr inbounds nuw %struct.prov_param_st, ptr %29, i32 0, i32 2
  %31 = load ptr, ptr %30, align 8, !tbaa !21
  %32 = call i32 @OSSL_PROVIDER_add_conf_parameter(ptr noundef %25, ptr noundef %28, ptr noundef %31)
  store i32 %32, ptr %3, align 4
  store i32 1, ptr %7, align 4
  br label %33

33:                                               ; preds = %22, %21
  call void @llvm.lifetime.end.p0(i64 8, ptr %6) #6
  %34 = load i32, ptr %3, align 4
  ret i32 %34
}