; Function Attrs: nounwind uwtable
define internal i32 @set_prov_param(ptr noundef %0, ptr noundef captures(none) %1) #0 {
  %3 = load ptr, ptr %1, align 8, !tbaa !24
  %.not = icmp eq ptr %3, null
  br i1 %.not, label %8, label %4

4:                                                ; preds = %2
  %5 = tail call ptr @OSSL_PROVIDER_get0_name(ptr noundef %0) #6
  %6 = load ptr, ptr %1, align 8, !tbaa !24
  %7 = tail call i32 @strcmp(ptr noundef nonnull dereferenceable(1) %5, ptr noundef nonnull dereferenceable(1) %6) #7
  %.not8 = icmp eq i32 %7, 0
  br i1 %.not8, label %8, label %15

8:                                                ; preds = %4, %2
  %9 = getelementptr inbounds nuw i8, ptr %1, i64 24
  store i32 1, ptr %9, align 8, !tbaa !25
  %10 = getelementptr inbounds nuw i8, ptr %1, i64 8
  %11 = load ptr, ptr %10, align 8, !tbaa !23
  %12 = getelementptr inbounds nuw i8, ptr %1, i64 16
  %13 = load ptr, ptr %12, align 8, !tbaa !12
  %14 = tail call i32 @OSSL_PROVIDER_add_conf_parameter(ptr noundef %0, ptr noundef %11, ptr noundef %13) #6
  br label %15

15:                                               ; preds = %4, %8
  %.0 = phi i32 [ %14, %8 ], [ 1, %4 ]
  ret i32 %.0
}